target datalayout = "e-m:e-p270:32:32-p271:32:32-p272:64:64-i64:64-i128:128-f80:128-n8:16:32:64-S128"
target triple = "x86_64-pc-linux-gnu"

@.str.110 = private unnamed_addr constant [9 x i8] c"override\00", align 1
@.str.111 = private unnamed_addr constant [6 x i8] c"final\00", align 1
@.str.112 = private unnamed_addr constant [8 x i8] c"__final\00", align 1
@.str.113 = private unnamed_addr constant [7 x i8] c"sealed\00", align 1
@.str.114 = private unnamed_addr constant [9 x i8] c"abstract\00", align 1

; Function Attrs: mustprogress nounwind uwtable
define dso_local noundef ptr @_ZN5clang14VirtSpecifiers16getSpecifierNameENS0_9SpecifierE(i32 noundef %0) #0 align 2 {
  %2 = alloca ptr, align 8
  %3 = alloca i32, align 4
  store i32 %0, ptr %3, align 4
  %4 = load i32, ptr %3, align 4
  switch i32 %4, label %5 [
    i32 1, label %6
    i32 2, label %7
    i32 8, label %8
    i32 4, label %9
    i32 16, label %10
  ]

5:                                                ; preds = %1
  unreachable

6:                                                ; preds = %1
  store ptr @.str.110, ptr %2, align 8
  br label %11

7:                                                ; preds = %1
  store ptr @.str.111, ptr %2, align 8
  br label %11

8:                                                ; preds = %1
  store ptr @.str.112, ptr %2, align 8
  br label %11

9:                                                ; preds = %1
  store ptr @.str.113, ptr %2, align 8
  br label %11

10:                                               ; preds = %1
  store ptr @.str.114, ptr %2, align 8
  br label %11

11:                                               ; preds = %10, %9, %8, %7, %6
  %12 = load ptr, ptr %2, align 8
  ret ptr %12
}