; Function Attrs: mustprogress nofree norecurse nosync nounwind willreturn memory(none) uwtable
define dso_local noundef nonnull ptr @_ZN5clang14VirtSpecifiers16getSpecifierNameENS0_9SpecifierE(i32 noundef %0) local_unnamed_addr #10 align 2 {
  switch i32 %0, label %2 [
    i32 1, label %7
    i32 2, label %3
    i32 8, label %4
    i32 4, label %5
    i32 16, label %6
  ]

2:                                                ; preds = %1
  unreachable

3:                                                ; preds = %1
  br label %7

4:                                                ; preds = %1
  br label %7

5:                                                ; preds = %1
  br label %7

6:                                                ; preds = %1
  br label %7

7:                                                ; preds = %1, %6, %5, %4, %3
  %.0 = phi ptr [ @.str.114, %6 ], [ @.str.113, %5 ], [ @.str.112, %4 ], [ @.str.111, %3 ], [ @.str.110, %1 ]
  ret ptr %.0
}